; Function Attrs: mustprogress uwtable
define hidden noundef zeroext i1 @_ZN4cvc58internal6theory2bv5utils6getBitENS0_12NodeTemplateILb0EEEj(ptr noundef readonly captures(none) %0, i32 noundef %1) local_unnamed_addr #3 personality ptr @__gxx_personality_v0 {
  %3 = alloca %"class.cvc5::internal::BitVector", align 8
  %4 = alloca %"class.cvc5::internal::Integer", align 8
  call void @llvm.lifetime.start.p0(i64 24, ptr nonnull %3) #22
  %5 = load ptr, ptr %0, align 8, !tbaa !10
  %6 = tail call noundef nonnull align 8 dereferenceable(24) ptr @_ZNK4cvc58internal4expr9NodeValue8getConstINS0_9BitVectorEEERKT_v(ptr noundef nonnull align 8 dereferenceable(24) %5)
  call void @_ZNK4cvc58internal9BitVector7extractEjj(ptr dead_on_unwind nonnull writable sret(%"class.cvc5::internal::BitVector") align 8 %3, ptr noundef nonnull align 8 dereferenceable(24) %6, i32 noundef %1, i32 noundef %1)
  %7 = invoke noundef nonnull align 8 dereferenceable(16) ptr @_ZNK4cvc58internal9BitVector8getValueEv(ptr noundef nonnull align 8 dereferenceable(24) %3)
          to label %8 unwind label %18

8:                                                ; preds = %2
  call void @llvm.lifetime.start.p0(i64 16, ptr nonnull %4) #22
  invoke void @__gmpz_init_set_ui(ptr noundef nonnull align 8 dereferenceable(16) %4, i64 noundef 1)
          to label %_ZN4cvc58internal7IntegerC2Ej.exit unwind label %20

_ZN4cvc58internal7IntegerC2Ej.exit:               ; preds = %8
  %9 = invoke noundef zeroext i1 @_ZNK4cvc58internal7IntegereqERKS1_(ptr noundef nonnull align 8 dereferenceable(16) %7, ptr noundef nonnull align 8 dereferenceable(16) %4)
          to label %10 unwind label %22

10:                                               ; preds = %_ZN4cvc58internal7IntegerC2Ej.exit
  invoke void @__gmpz_clear(ptr noundef nonnull align 8 dereferenceable(16) %4)
          to label %_ZN4cvc58internal7IntegerD2Ev.exit unwind label %11

11:                                               ; preds = %10
  %12 = landingpad { ptr, i32 }
          catch ptr null
  %13 = extractvalue { ptr, i32 } %12, 0
  call void @__clang_call_terminate(ptr %13) #23
  unreachable

_ZN4cvc58internal7IntegerD2Ev.exit:               ; preds = %10
  call void @llvm.lifetime.end.p0(i64 16, ptr nonnull %4) #22
  %14 = getelementptr inbounds nuw i8, ptr %3, i64 8
  invoke void @__gmpz_clear(ptr noundef nonnull align 8 dereferenceable(16) %14)
          to label %_ZN4cvc58internal9BitVectorD2Ev.exit unwind label %15

15:                                               ; preds = %_ZN4cvc58internal7IntegerD2Ev.exit
  %16 = landingpad { ptr, i32 }
          catch ptr null
  %17 = extractvalue { ptr, i32 } %16, 0
  call void @__clang_call_terminate(ptr %17) #23
  unreachable

_ZN4cvc58internal9BitVectorD2Ev.exit:             ; preds = %_ZN4cvc58internal7IntegerD2Ev.exit
  call void @llvm.lifetime.end.p0(i64 24, ptr nonnull %3) #22
  ret i1 %9

18:                                               ; preds = %2
  %19 = landingpad { ptr, i32 }
          cleanup
  br label %27

20:                                               ; preds = %8
  %21 = landingpad { ptr, i32 }
          cleanup
  br label %_ZN4cvc58internal7IntegerD2Ev.exit7

22:                                               ; preds = %_ZN4cvc58internal7IntegerC2Ej.exit
  %23 = landingpad { ptr, i32 }
          cleanup
  invoke void @__gmpz_clear(ptr noundef nonnull align 8 dereferenceable(16) %4)
          to label %_ZN4cvc58internal7IntegerD2Ev.exit7 unwind label %24

24:                                               ; preds = %22
  %25 = landingpad { ptr, i32 }
          catch ptr null
  %26 = extractvalue { ptr, i32 } %25, 0
  call void @__clang_call_terminate(ptr %26) #23
  unreachable

_ZN4cvc58internal7IntegerD2Ev.exit7:              ; preds = %22, %20
  %.pn = phi { ptr, i32 } [ %21, %20 ], [ %23, %22 ]
  call void @llvm.lifetime.end.p0(i64 16, ptr nonnull %4) #22
  br label %27

27:                                               ; preds = %_ZN4cvc58internal7IntegerD2Ev.exit7, %18
  %.pn.pn = phi { ptr, i32 } [ %.pn, %_ZN4cvc58internal7IntegerD2Ev.exit7 ], [ %19, %18 ]
  %28 = getelementptr inbounds nuw i8, ptr %3, i64 8
  invoke void @__gmpz_clear(ptr noundef nonnull align 8 dereferenceable(16) %28)
          to label %_ZN4cvc58internal9BitVectorD2Ev.exit8 unwind label %29

29:                                               ; preds = %27
  %30 = landingpad { ptr, i32 }
          catch ptr null
  %31 = extractvalue { ptr, i32 } %30, 0
  call void @__clang_call_terminate(ptr %31) #23
  unreachable

_ZN4cvc58internal9BitVectorD2Ev.exit8:            ; preds = %27
  call void @llvm.lifetime.end.p0(i64 24, ptr nonnull %3) #22
  resume { ptr, i32 } %.pn.pn
}